; Function Attrs: mustprogress nounwind uwtable
define internal noundef zeroext i1 @_ZNK4llvm19TargetTransformInfo5ModelIN12_GLOBAL__N_19NoTTIImplEE19areInlineCompatibleEPKNS_8FunctionES7_(ptr nocapture nonnull readnone align 8 %0, ptr noundef nonnull %1, ptr noundef %2) unnamed_addr #0 align 2 {
  %4 = tail call ptr @_ZNK4llvm8Function14getFnAttributeENS_9StringRefE(ptr noundef nonnull align 8 dereferenceable(136) %1, ptr nonnull @.str.74, i64 10) #25
  %5 = tail call ptr @_ZNK4llvm8Function14getFnAttributeENS_9StringRefE(ptr noundef nonnull align 8 dereferenceable(136) %2, ptr nonnull @.str.74, i64 10) #25
  %6 = icmp eq ptr %4, %5
  br i1 %6, label %7, label %_ZNK4llvm27TargetTransformInfoImplBase19areInlineCompatibleEPKNS_8FunctionES3_.exit

7:                                                ; preds = %3
  %8 = tail call ptr @_ZNK4llvm8Function14getFnAttributeENS_9StringRefE(ptr noundef nonnull align 8 dereferenceable(136) %1, ptr nonnull @.str.75, i64 15) #25
  %9 = tail call ptr @_ZNK4llvm8Function14getFnAttributeENS_9StringRefE(ptr noundef nonnull align 8 dereferenceable(136) %2, ptr nonnull @.str.75, i64 15) #25
  %10 = icmp eq ptr %8, %9
  br label %_ZNK4llvm27TargetTransformInfoImplBase19areInlineCompatibleEPKNS_8FunctionES3_.exit

_ZNK4llvm27TargetTransformInfoImplBase19areInlineCompatibleEPKNS_8FunctionES3_.exit: ; preds = %3, %7
  %11 = phi i1 [ false, %3 ], [ %10, %7 ]
  ret i1 %11
}